target datalayout = "e-m:e-p270:32:32-p271:32:32-p272:64:64-i64:64-i128:128-f80:128-n8:16:32:64-S128"
target triple = "x86_64-pc-linux-gnu"

%struct.Vec_Int_t_ = type { i32, i32, ptr }
%struct.Qbf_Man_t_ = type { ptr, i32, i32, i32, i32, ptr, ptr, ptr, ptr, ptr, ptr, i64, i64 }

; Function Attrs: inlinehint nounwind uwtable
define internal i32 @Abc_Var2Lit(i32 noundef %0, i32 noundef %1) #2 {
  %3 = alloca i32, align 4
  %4 = alloca i32, align 4
  store i32 %0, ptr %3, align 4, !tbaa !8
  store i32 %1, ptr %4, align 4, !tbaa !8
  %5 = load i32, ptr %3, align 4, !tbaa !8
  %6 = load i32, ptr %3, align 4, !tbaa !8
  %7 = add nsw i32 %5, %6
  %8 = load i32, ptr %4, align 4, !tbaa !8
  %9 = add nsw i32 %7, %8
  ret i32 %9
}

; Function Attrs: inlinehint nounwind uwtable
define internal void @Vec_IntWriteEntry(ptr noundef %0, i32 noundef %1, i32 noundef %2) #2 {
  %4 = alloca ptr, align 8
  %5 = alloca i32, align 4
  %6 = alloca i32, align 4
  store ptr %0, ptr %4, align 8, !tbaa !10
  store i32 %1, ptr %5, align 4, !tbaa !8
  store i32 %2, ptr %6, align 4, !tbaa !8
  %7 = load i32, ptr %6, align 4, !tbaa !8
  %8 = load ptr, ptr %4, align 8, !tbaa !10
  %9 = getelementptr inbounds nuw %struct.Vec_Int_t_, ptr %8, i32 0, i32 2
  %10 = load ptr, ptr %9, align 8, !tbaa !17
  %11 = load i32, ptr %5, align 4, !tbaa !8
  %12 = sext i32 %11 to i64
  %13 = getelementptr inbounds i32, ptr %10, i64 %12
  store i32 %7, ptr %13, align 4, !tbaa !8
  ret void
}

; Function Attrs: nounwind uwtable
define void @Gia_QbfAddSpecialConstr(ptr noundef %0) #0 {
  %2 = alloca ptr, align 8
  %3 = alloca i32, align 4
  %4 = alloca i32, align 4
  %5 = alloca [2 x i32], align 4
  store ptr %0, ptr %2, align 8, !tbaa !104
  call void @llvm.lifetime.start.p0(i64 4, ptr %3) #14
  call void @llvm.lifetime.start.p0(i64 4, ptr %4) #14
  call void @llvm.lifetime.start.p0(i64 8, ptr %5) #14
  store i32 0, ptr %3, align 4, !tbaa !8
  br label %6

6:                                                ; preds = %37, %1
  %7 = load i32, ptr %3, align 4, !tbaa !8
  %8 = icmp slt i32 %7, 44
  br i1 %8, label %9, label %40

9:                                                ; preds = %6
  %10 = load i32, ptr %3, align 4, !tbaa !8
  %11 = srem i32 %10, 4
  %12 = icmp eq i32 %11, 0
  br i1 %12, label %13, label %36

13:                                               ; preds = %9
  %14 = load ptr, ptr %2, align 8, !tbaa !104
  %15 = getelementptr inbounds nuw %struct.Qbf_Man_t_, ptr %14, i32 0, i32 9
  %16 = load ptr, ptr %15, align 8, !tbaa !117
  %17 = load i32, ptr %3, align 4, !tbaa !8
  %18 = load i32, ptr %3, align 4, !tbaa !8
  %19 = srem i32 %18, 4
  %20 = icmp eq i32 %19, 3
  %21 = zext i1 %20 to i32
  call void @Vec_IntWriteEntry(ptr noundef %16, i32 noundef %17, i32 noundef %21)
  %22 = load i32, ptr %3, align 4, !tbaa !8
  %23 = load i32, ptr %3, align 4, !tbaa !8
  %24 = srem i32 %23, 4
  %25 = icmp ne i32 %24, 3
  %26 = zext i1 %25 to i32
  %27 = call i32 @Abc_Var2Lit(i32 noundef %22, i32 noundef %26)
  %28 = getelementptr inbounds [2 x i32], ptr %5, i64 0, i64 0
  store i32 %27, ptr %28, align 4, !tbaa !8
  %29 = load ptr, ptr %2, align 8, !tbaa !104
  %30 = getelementptr inbounds nuw %struct.Qbf_Man_t_, ptr %29, i32 0, i32 6
  %31 = load ptr, ptr %30, align 8, !tbaa !114
  %32 = getelementptr inbounds [2 x i32], ptr %5, i64 0, i64 0
  %33 = getelementptr inbounds [2 x i32], ptr %5, i64 0, i64 0
  %34 = getelementptr inbounds i32, ptr %33, i64 1
  %35 = call i32 @sat_solver_addclause(ptr noundef %31, ptr noundef %32, ptr noundef %34)
  store i32 %35, ptr %4, align 4, !tbaa !8
  br label %36

36:                                               ; preds = %13, %9
  br label %37

37:                                               ; preds = %36
  %38 = load i32, ptr %3, align 4, !tbaa !8
  %39 = add nsw i32 %38, 1
  store i32 %39, ptr %3, align 4, !tbaa !8
  br label %6, !llvm.loop !142

40:                                               ; preds = %6
  call void @llvm.lifetime.end.p0(i64 8, ptr %5) #14
  call void @llvm.lifetime.end.p0(i64 4, ptr %4) #14
  call void @llvm.lifetime.end.p0(i64 4, ptr %3) #14
  ret void
}