; Function Attrs: nounwind uwtable
define void @Gia_QbfAddSpecialConstr(ptr noundef readonly captures(none) %0) local_unnamed_addr #0 {
  %2 = alloca [2 x i32], align 4
  call void @llvm.lifetime.start.p0(i64 8, ptr nonnull %2) #29
  %3 = getelementptr inbounds nuw i8, ptr %0, i64 56
  %4 = getelementptr inbounds nuw i8, ptr %0, i64 32
  %5 = getelementptr inbounds nuw i8, ptr %2, i64 4
  br label %6

6:                                                ; preds = %1, %17
  %indvars.iv = phi i64 [ 0, %1 ], [ %indvars.iv.next, %17 ]
  %7 = and i64 %indvars.iv, 3
  %8 = icmp eq i64 %7, 0
  br i1 %8, label %9, label %17

9:                                                ; preds = %6
  %10 = load ptr, ptr %3, align 8, !tbaa !108
  %11 = getelementptr i8, ptr %10, i64 8
  %.val = load ptr, ptr %11, align 8, !tbaa !10
  %12 = getelementptr inbounds nuw i32, ptr %.val, i64 %indvars.iv
  store i32 0, ptr %12, align 4, !tbaa !12
  %indvars.iv.tr = trunc i64 %indvars.iv to i32
  %13 = shl i32 %indvars.iv.tr, 1
  %14 = or disjoint i32 %13, 1
  store i32 %14, ptr %2, align 4, !tbaa !12
  %15 = load ptr, ptr %4, align 8, !tbaa !105
  %16 = call i32 @sat_solver_addclause(ptr noundef %15, ptr noundef nonnull %2, ptr noundef nonnull %5) #29
  br label %17

17:                                               ; preds = %6, %9
  %indvars.iv.next = add nuw nsw i64 %indvars.iv, 1
  %exitcond.not = icmp eq i64 %indvars.iv.next, 44
  br i1 %exitcond.not, label %18, label %6, !llvm.loop !133

18:                                               ; preds = %17
  call void @llvm.lifetime.end.p0(i64 8, ptr nonnull %2) #29
  ret void
}